target datalayout = "e-m:e-p270:32:32-p271:32:32-p272:64:64-i64:64-i128:128-f80:128-n8:16:32:64-S128"
target triple = "x86_64-pc-linux-gnu"

%"class.cv::DenseOpticalFlow" = type { %"class.cv::Algorithm" }
%"class.cv::Algorithm" = type { ptr }
%"class.cv::optflow::OpticalFlowFarneback" = type <{ %"class.cv::DenseOpticalFlow", i32, [4 x i8], double, i8, [3 x i8], i32, i32, i32, double, i32, [4 x i8] }>

; Function Attrs: inlinehint mustprogress uwtable
define linkonce_odr hidden void @_ZN2cv16DenseOpticalFlowC2Ev(ptr noundef nonnull align 8 dereferenceable(8) %0) unnamed_addr #1 comdat align 2 {
  %2 = alloca ptr, align 8
  store ptr %0, ptr %2, align 8, !tbaa !28
  %3 = load ptr, ptr %2, align 8
  call void @_ZN2cv9AlgorithmC2Ev(ptr noundef nonnull align 8 dereferenceable(8) %3)
  store ptr getelementptr inbounds inrange(-16, 80) ({ [12 x ptr] }, ptr @_ZTVN2cv16DenseOpticalFlowE, i32 0, i32 0, i32 2), ptr %3, align 8, !tbaa !8
  ret void
}

; Function Attrs: mustprogress uwtable
define hidden void @_ZN2cv7optflow20OpticalFlowFarnebackC2Ev(ptr noundef nonnull align 8 dereferenceable(52) %0) unnamed_addr #0 align 2 {
  %2 = alloca ptr, align 8
  store ptr %0, ptr %2, align 8, !tbaa !38
  %3 = load ptr, ptr %2, align 8
  call void @_ZN2cv16DenseOpticalFlowC2Ev(ptr noundef nonnull align 8 dereferenceable(8) %3)
  store ptr getelementptr inbounds inrange(-16, 80) ({ [12 x ptr] }, ptr @_ZTVN2cv7optflow20OpticalFlowFarnebackE, i32 0, i32 0, i32 2), ptr %3, align 8, !tbaa !8
  %4 = getelementptr inbounds nuw %"class.cv::optflow::OpticalFlowFarneback", ptr %3, i32 0, i32 1
  store i32 5, ptr %4, align 8, !tbaa !40
  %5 = getelementptr inbounds nuw %"class.cv::optflow::OpticalFlowFarneback", ptr %3, i32 0, i32 3
  store double 5.000000e-01, ptr %5, align 8, !tbaa !43
  %6 = getelementptr inbounds nuw %"class.cv::optflow::OpticalFlowFarneback", ptr %3, i32 0, i32 4
  store i8 0, ptr %6, align 8, !tbaa !44
  %7 = getelementptr inbounds nuw %"class.cv::optflow::OpticalFlowFarneback", ptr %3, i32 0, i32 6
  store i32 13, ptr %7, align 4, !tbaa !45
  %8 = getelementptr inbounds nuw %"class.cv::optflow::OpticalFlowFarneback", ptr %3, i32 0, i32 7
  store i32 10, ptr %8, align 8, !tbaa !46
  %9 = getelementptr inbounds nuw %"class.cv::optflow::OpticalFlowFarneback", ptr %3, i32 0, i32 8
  store i32 5, ptr %9, align 4, !tbaa !47
  %10 = getelementptr inbounds nuw %"class.cv::optflow::OpticalFlowFarneback", ptr %3, i32 0, i32 9
  store double 1.100000e+00, ptr %10, align 8, !tbaa !48
  %11 = getelementptr inbounds nuw %"class.cv::optflow::OpticalFlowFarneback", ptr %3, i32 0, i32 10
  store i32 0, ptr %11, align 8, !tbaa !49
  ret void
}