; Function Attrs: mustprogress uwtable
define hidden void @_ZN2cv7optflow20OpticalFlowFarnebackC2Ev(ptr noundef nonnull align 8 dereferenceable(52) %0) unnamed_addr #0 align 2 {
  tail call void @_ZN2cv9AlgorithmC2Ev(ptr noundef nonnull align 8 dereferenceable(8) %0)
  store ptr getelementptr inbounds nuw inrange(-16, 80) (i8, ptr @_ZTVN2cv7optflow20OpticalFlowFarnebackE, i64 16), ptr %0, align 8, !tbaa !3
  %2 = getelementptr inbounds nuw i8, ptr %0, i64 8
  store i32 5, ptr %2, align 8, !tbaa !40
  %3 = getelementptr inbounds nuw i8, ptr %0, i64 16
  store double 5.000000e-01, ptr %3, align 8, !tbaa !43
  %4 = getelementptr inbounds nuw i8, ptr %0, i64 24
  store i8 0, ptr %4, align 8, !tbaa !44
  %5 = getelementptr inbounds nuw i8, ptr %0, i64 28
  store i32 13, ptr %5, align 4, !tbaa !45
  %6 = getelementptr inbounds nuw i8, ptr %0, i64 32
  store i32 10, ptr %6, align 8, !tbaa !46
  %7 = getelementptr inbounds nuw i8, ptr %0, i64 36
  store i32 5, ptr %7, align 4, !tbaa !47
  %8 = getelementptr inbounds nuw i8, ptr %0, i64 40
  store double 1.100000e+00, ptr %8, align 8, !tbaa !48
  %9 = getelementptr inbounds nuw i8, ptr %0, i64 48
  store i32 0, ptr %9, align 8, !tbaa !49
  ret void
}